; Function Attrs: mustprogress nofree norecurse nounwind willreturn memory(readwrite, inaccessiblemem: none) uwtable
define void @grpc_slice_ref(ptr dead_on_unwind noalias writable writeonly sret(%struct.grpc_slice) align 8 captures(none) initializes((0, 32)) %0, ptr noundef readonly byval(%struct.grpc_slice) align 8 captures(none) %1) local_unnamed_addr #17 {
  %3 = load ptr, ptr %1, align 8, !tbaa !3
  %4 = icmp ugt ptr %3, inttoptr (i64 1 to ptr)
  br i1 %4, label %5, label %_ZN9grpc_core9CSliceRefERK10grpc_sliceNS_13DebugLocationE.exit

5:                                                ; preds = %2
  %6 = atomicrmw add ptr %3, i64 1 monotonic, align 8
  br label %_ZN9grpc_core9CSliceRefERK10grpc_sliceNS_13DebugLocationE.exit

_ZN9grpc_core9CSliceRefERK10grpc_sliceNS_13DebugLocationE.exit: ; preds = %2, %5
  call void @llvm.memcpy.p0.p0.i64(ptr noundef nonnull align 8 dereferenceable(32) %0, ptr noundef nonnull align 8 dereferenceable(32) %1, i64 32, i1 false), !tbaa.struct !84
  ret void
}